target datalayout = "e-m:e-p270:32:32-p271:32:32-p272:64:64-i64:64-i128:128-f80:128-n8:16:32:64-S128"
target triple = "x86_64-pc-linux-gnu"

%struct.Map_TimeStruct_t_ = type { float, float, float }
%struct.Map_SuperLibStruct_t_ = type { ptr, ptr, i32, i32, i32, i32, i32, ptr, ptr, ptr, [6 x [2 x i32]], [2 x i32], ptr, %struct.Map_TimeStruct_t_, float, float, ptr, ptr, ptr, ptr }

; Function Attrs: nounwind uwtable
define { <2 x float>, float } @Map_SuperLibReadDelayInv(ptr noundef %0) #0 {
  %2 = alloca %struct.Map_TimeStruct_t_, align 4
  %3 = alloca ptr, align 8
  %4 = alloca { <2 x float>, float }, align 8
  store ptr %0, ptr %3, align 8, !tbaa !87
  %5 = load ptr, ptr %3, align 8, !tbaa !87
  %6 = getelementptr inbounds nuw %struct.Map_SuperLibStruct_t_, ptr %5, i32 0, i32 13
  call void @llvm.memcpy.p0.p0.i64(ptr align 4 %2, ptr align 8 %6, i64 12, i1 false), !tbaa.struct !89
  call void @llvm.memcpy.p0.p0.i64(ptr align 8 %4, ptr align 4 %2, i64 12, i1 false)
  %7 = load { <2 x float>, float }, ptr %4, align 8
  ret { <2 x float>, float } %7
}